target datalayout = "e-m:e-p270:32:32-p271:32:32-p272:64:64-i64:64-i128:128-f80:128-n8:16:32:64-S128"
target triple = "x86_64-unknown-linux-gnu"

%"class.zmq::router_t" = type <{ %"class.zmq::routing_socket_base_t", %"class.zmq::fq_t", i8, i8, [6 x i8], %"class.zmq::msg_t", %"class.zmq::msg_t", ptr, i8, i8, [6 x i8], %"class.std::set.67", ptr, i8, [3 x i8], i32, i8, i8, i8, i8, [4 x i8] }>
%"class.zmq::routing_socket_base_t" = type { %"class.zmq::socket_base_t.base", %"class.std::map.50", %"class.std::__cxx11::basic_string" }
%"class.zmq::socket_base_t.base" = type <{ %"class.zmq::own_t.base", [4 x i8], %"class.zmq::array_item_t.base", [4 x i8], %"struct.zmq::i_poll_events", %"struct.zmq::i_pipe_events", %"class.zmq::mutex_t", %"class.std::multimap", %"class.zmq::socket_base_t::inprocs_t", i32, i8, i8, [2 x i8], ptr, %"class.zmq::array_t", ptr, ptr, i64, i32, i8, [3 x i8], %"class.zmq::clock_t", ptr, i64, %"class.std::__cxx11::basic_string", i8, [7 x i8], ptr, %"class.zmq::mutex_t", i8 }>
%"class.zmq::own_t.base" = type <{ %"class.zmq::object_t.base", [4 x i8], %"struct.zmq::options_t", i8, [7 x i8], %"class.zmq::atomic_counter_t", i64, ptr, %"class.std::set.28", i32 }>
%"class.zmq::object_t.base" = type <{ ptr, ptr, i32 }>
%"struct.zmq::options_t" = type { i32, i32, i64, i8, [256 x i8], i32, i32, i32, i32, i32, i32, i32, i32, i8, %"struct.zmq::atomic_value_t", i32, i32, i32, i32, i32, i32, i64, i32, i32, i8, i32, i8, i8, i8, i8, i8, %"class.std::__cxx11::basic_string", %"class.std::__cxx11::basic_string", %"class.std::__cxx11::basic_string", i32, i32, i32, i32, %"class.std::vector", %"class.std::set", %"class.std::set", %"class.std::set.6", i32, i32, %"class.std::__cxx11::basic_string", %"class.std::__cxx11::basic_string", %"class.std::__cxx11::basic_string", [32 x i8], [32 x i8], [32 x i8], %"class.std::__cxx11::basic_string", %"class.std::__cxx11::basic_string", i32, i32, i8, i32, i8, i32, i8, i16, i32, i32, i32, %"class.std::__cxx11::basic_string", i8, i8, i8, i32, i32, i8, i32, %"class.std::map", i32, %"class.std::__cxx11::basic_string", %"class.std::__cxx11::basic_string", %"class.std::__cxx11::basic_string", %"class.std::__cxx11::basic_string", i8, %"class.std::vector.21", i8, %"class.std::vector.21", i8, %"class.std::vector.21", i8, i32, i8, i32, i32, i32, i32, i32, i8, i32 }
%"struct.zmq::atomic_value_t" = type { %"struct.std::atomic" }
%"struct.std::atomic" = type { %"struct.std::__atomic_base" }
%"struct.std::__atomic_base" = type { i32 }
%"class.std::vector" = type { %"struct.std::_Vector_base" }
%"struct.std::_Vector_base" = type { %"struct.std::_Vector_base<zmq::tcp_address_mask_t, std::allocator<zmq::tcp_address_mask_t>>::_Vector_impl" }
%"struct.std::_Vector_base<zmq::tcp_address_mask_t, std::allocator<zmq::tcp_address_mask_t>>::_Vector_impl" = type { %"struct.std::_Vector_base<zmq::tcp_address_mask_t, std::allocator<zmq::tcp_address_mask_t>>::_Vector_impl_data" }
%"struct.std::_Vector_base<zmq::tcp_address_mask_t, std::allocator<zmq::tcp_address_mask_t>>::_Vector_impl_data" = type { ptr, ptr, ptr }
%"class.std::set" = type { %"class.std::_Rb_tree" }
%"class.std::_Rb_tree" = type { %"struct.std::_Rb_tree<unsigned int, unsigned int, std::_Identity<unsigned int>, std::less<unsigned int>>::_Rb_tree_impl" }
%"struct.std::_Rb_tree<unsigned int, unsigned int, std::_Identity<unsigned int>, std::less<unsigned int>>::_Rb_tree_impl" = type { %"struct.std::_Rb_tree_key_compare", %"struct.std::_Rb_tree_header" }
%"struct.std::_Rb_tree_key_compare" = type { %"struct.std::less" }
%"struct.std::less" = type { i8 }
%"struct.std::_Rb_tree_header" = type { %"struct.std::_Rb_tree_node_base", i64 }
%"struct.std::_Rb_tree_node_base" = type { i32, ptr, ptr, ptr }
%"class.std::set.6" = type { %"class.std::_Rb_tree.7" }
%"class.std::_Rb_tree.7" = type { %"struct.std::_Rb_tree<int, int, std::_Identity<int>, std::less<int>>::_Rb_tree_impl" }
%"struct.std::_Rb_tree<int, int, std::_Identity<int>, std::less<int>>::_Rb_tree_impl" = type { %"struct.std::_Rb_tree_key_compare.11", %"struct.std::_Rb_tree_header" }
%"struct.std::_Rb_tree_key_compare.11" = type { %"struct.std::less.12" }
%"struct.std::less.12" = type { i8 }
%"class.std::map" = type { %"class.std::_Rb_tree.14" }
%"class.std::_Rb_tree.14" = type { %"struct.std::_Rb_tree<std::__cxx11::basic_string<char>, std::pair<const std::__cxx11::basic_string<char>, std::__cxx11::basic_string<char>>, std::_Select1st<std::pair<const std::__cxx11::basic_string<char>, std::__cxx11::basic_string<char>>>, std::less<std::__cxx11::basic_string<char>>>::_Rb_tree_impl" }
%"struct.std::_Rb_tree<std::__cxx11::basic_string<char>, std::pair<const std::__cxx11::basic_string<char>, std::__cxx11::basic_string<char>>, std::_Select1st<std::pair<const std::__cxx11::basic_string<char>, std::__cxx11::basic_string<char>>>, std::less<std::__cxx11::basic_string<char>>>::_Rb_tree_impl" = type { %"struct.std::_Rb_tree_key_compare.18", %"struct.std::_Rb_tree_header" }
%"struct.std::_Rb_tree_key_compare.18" = type { %"struct.std::less.19" }
%"struct.std::less.19" = type { i8 }
%"class.std::vector.21" = type { %"struct.std::_Vector_base.22" }
%"struct.std::_Vector_base.22" = type { %"struct.std::_Vector_base<unsigned char, std::allocator<unsigned char>>::_Vector_impl" }
%"struct.std::_Vector_base<unsigned char, std::allocator<unsigned char>>::_Vector_impl" = type { %"struct.std::_Vector_base<unsigned char, std::allocator<unsigned char>>::_Vector_impl_data" }
%"struct.std::_Vector_base<unsigned char, std::allocator<unsigned char>>::_Vector_impl_data" = type { ptr, ptr, ptr }
%"class.zmq::atomic_counter_t" = type { %"struct.std::atomic.26", [4 x i8] }
%"struct.std::atomic.26" = type { %"struct.std::__atomic_base.27" }
%"struct.std::__atomic_base.27" = type { i32 }
%"class.std::set.28" = type { %"class.std::_Rb_tree.29" }
%"class.std::_Rb_tree.29" = type { %"struct.std::_Rb_tree<zmq::own_t *, zmq::own_t *, std::_Identity<zmq::own_t *>, std::less<zmq::own_t *>>::_Rb_tree_impl" }
%"struct.std::_Rb_tree<zmq::own_t *, zmq::own_t *, std::_Identity<zmq::own_t *>, std::less<zmq::own_t *>>::_Rb_tree_impl" = type { %"struct.std::_Rb_tree_key_compare.33", %"struct.std::_Rb_tree_header" }
%"struct.std::_Rb_tree_key_compare.33" = type { %"struct.std::less.34" }
%"struct.std::less.34" = type { i8 }
%"class.zmq::array_item_t.base" = type <{ ptr, i32 }>
%"struct.zmq::i_poll_events" = type { ptr }
%"struct.zmq::i_pipe_events" = type { ptr }
%"class.std::multimap" = type { %"class.std::_Rb_tree.36" }
%"class.std::_Rb_tree.36" = type { %"struct.std::_Rb_tree<std::__cxx11::basic_string<char>, std::pair<const std::__cxx11::basic_string<char>, std::pair<zmq::own_t *, zmq::pipe_t *>>, std::_Select1st<std::pair<const std::__cxx11::basic_string<char>, std::pair<zmq::own_t *, zmq::pipe_t *>>>, std::less<std::__cxx11::basic_string<char>>>::_Rb_tree_impl" }
%"struct.std::_Rb_tree<std::__cxx11::basic_string<char>, std::pair<const std::__cxx11::basic_string<char>, std::pair<zmq::own_t *, zmq::pipe_t *>>, std::_Select1st<std::pair<const std::__cxx11::basic_string<char>, std::pair<zmq::own_t *, zmq::pipe_t *>>>, std::less<std::__cxx11::basic_string<char>>>::_Rb_tree_impl" = type { %"struct.std::_Rb_tree_key_compare.18", %"struct.std::_Rb_tree_header" }
%"class.zmq::socket_base_t::inprocs_t" = type { %"class.std::multimap.40" }
%"class.std::multimap.40" = type { %"class.std::_Rb_tree.41" }
%"class.std::_Rb_tree.41" = type { %"struct.std::_Rb_tree<std::__cxx11::basic_string<char>, std::pair<const std::__cxx11::basic_string<char>, zmq::pipe_t *>, std::_Select1st<std::pair<const std::__cxx11::basic_string<char>, zmq::pipe_t *>>, std::less<std::__cxx11::basic_string<char>>>::_Rb_tree_impl" }
%"struct.std::_Rb_tree<std::__cxx11::basic_string<char>, std::pair<const std::__cxx11::basic_string<char>, zmq::pipe_t *>, std::_Select1st<std::pair<const std::__cxx11::basic_string<char>, zmq::pipe_t *>>, std::less<std::__cxx11::basic_string<char>>>::_Rb_tree_impl" = type { %"struct.std::_Rb_tree_key_compare.18", %"struct.std::_Rb_tree_header" }
%"class.zmq::array_t" = type { %"class.std::vector.45" }
%"class.std::vector.45" = type { %"struct.std::_Vector_base.46" }
%"struct.std::_Vector_base.46" = type { %"struct.std::_Vector_base<zmq::pipe_t *, std::allocator<zmq::pipe_t *>>::_Vector_impl" }
%"struct.std::_Vector_base<zmq::pipe_t *, std::allocator<zmq::pipe_t *>>::_Vector_impl" = type { %"struct.std::_Vector_base<zmq::pipe_t *, std::allocator<zmq::pipe_t *>>::_Vector_impl_data" }
%"struct.std::_Vector_base<zmq::pipe_t *, std::allocator<zmq::pipe_t *>>::_Vector_impl_data" = type { ptr, ptr, ptr }
%"class.zmq::clock_t" = type { i64, i64 }
%"class.zmq::mutex_t" = type <{ %union.pthread_mutex_t, %union.pthread_mutexattr_t, [4 x i8] }>
%union.pthread_mutex_t = type { %struct.__pthread_mutex_s }
%struct.__pthread_mutex_s = type { i32, i32, i32, i32, i32, i16, i16, %struct.__pthread_internal_list }
%struct.__pthread_internal_list = type { ptr, ptr }
%union.pthread_mutexattr_t = type { i32 }
%"class.std::map.50" = type { %"class.std::_Rb_tree.51" }
%"class.std::_Rb_tree.51" = type { %"struct.std::_Rb_tree<zmq::blob_t, std::pair<const zmq::blob_t, zmq::routing_socket_base_t::out_pipe_t>, std::_Select1st<std::pair<const zmq::blob_t, zmq::routing_socket_base_t::out_pipe_t>>, std::less<zmq::blob_t>>::_Rb_tree_impl" }
%"struct.std::_Rb_tree<zmq::blob_t, std::pair<const zmq::blob_t, zmq::routing_socket_base_t::out_pipe_t>, std::_Select1st<std::pair<const zmq::blob_t, zmq::routing_socket_base_t::out_pipe_t>>, std::less<zmq::blob_t>>::_Rb_tree_impl" = type { %"struct.std::_Rb_tree_key_compare.55", %"struct.std::_Rb_tree_header" }
%"struct.std::_Rb_tree_key_compare.55" = type { %"struct.std::less.56" }
%"struct.std::less.56" = type { i8 }
%"class.std::__cxx11::basic_string" = type { %"struct.std::__cxx11::basic_string<char>::_Alloc_hider", i64, %union.anon }
%"struct.std::__cxx11::basic_string<char>::_Alloc_hider" = type { ptr }
%union.anon = type { i64, [8 x i8] }
%"class.zmq::fq_t" = type <{ %"class.zmq::array_t.58", i64, i64, i8, [7 x i8] }>
%"class.zmq::array_t.58" = type { %"class.std::vector.45" }
%"class.zmq::msg_t" = type { %union.anon.59 }
%union.anon.59 = type { %struct.anon }
%struct.anon = type { ptr, [34 x i8], i8, i8, i32, %"union.zmq::msg_t::group_t" }
%"union.zmq::msg_t::group_t" = type { %struct.anon.61 }
%struct.anon.61 = type { i8, ptr }
%"class.std::set.67" = type { %"class.std::_Rb_tree.68" }
%"class.std::_Rb_tree.68" = type { %"struct.std::_Rb_tree<zmq::pipe_t *, zmq::pipe_t *, std::_Identity<zmq::pipe_t *>, std::less<zmq::pipe_t *>>::_Rb_tree_impl" }
%"struct.std::_Rb_tree<zmq::pipe_t *, zmq::pipe_t *, std::_Identity<zmq::pipe_t *>, std::less<zmq::pipe_t *>>::_Rb_tree_impl" = type { %"struct.std::_Rb_tree_key_compare.72", %"struct.std::_Rb_tree_header" }
%"struct.std::_Rb_tree_key_compare.72" = type { %"struct.std::less.73" }
%"struct.std::less.73" = type { i8 }
%"struct.zmq::blob_t" = type <{ ptr, i64, i8, [7 x i8] }>

@stderr = external global ptr, align 8
@.str = private unnamed_addr constant [30 x i8] c"Assertion failed: %s (%s:%d)\0A\00", align 1
@.str.2 = private unnamed_addr constant [106 x i8] c"generated/home/dtcxzyw/WorkSpace/Projects/compilers/llvm-opt-benchmark/bench/libzmq/libzmq/src/router.cpp\00", align 1
@.str.4 = private unnamed_addr constant [12 x i8] c"%s (%s:%d)\0A\00", align 1
@.str.6 = private unnamed_addr constant [13 x i8] c"pipe != NULL\00", align 1

; Function Attrs: mustprogress nounwind uwtable
define linkonce_odr noundef ptr @_ZNK3zmq6blob_t4dataEv(ptr noundef nonnull align 8 dereferenceable(17) %this) #2 comdat align 2 {
entry:
  %this.addr = alloca ptr, align 8
  store ptr %this, ptr %this.addr, align 8
  %this1 = load ptr, ptr %this.addr, align 8
  %_data = getelementptr inbounds %"struct.zmq::blob_t", ptr %this1, i32 0, i32 0
  %0 = load ptr, ptr %_data, align 8
  ret ptr %0
}

; Function Attrs: mustprogress nounwind uwtable
define linkonce_odr noundef i64 @_ZNK3zmq6blob_t4sizeEv(ptr noundef nonnull align 8 dereferenceable(17) %this) #2 comdat align 2 {
entry:
  %this.addr = alloca ptr, align 8
  store ptr %this, ptr %this.addr, align 8
  %this1 = load ptr, ptr %this.addr, align 8
  %_size = getelementptr inbounds %"struct.zmq::blob_t", ptr %this1, i32 0, i32 1
  %0 = load i64, ptr %_size, align 8
  ret i64 %0
}

; Function Attrs: mustprogress uwtable
define noundef zeroext i1 @_ZN3zmq8router_t7xhas_inEv(ptr noundef nonnull align 8 dereferenceable(2180) %this) unnamed_addr #0 align 2 {
entry:
  %retval = alloca i1, align 1
  %this.addr = alloca ptr, align 8
  %pipe = alloca ptr, align 8
  %rc = alloca i32, align 4
  %routing_id = alloca ptr, align 8
  %errstr = alloca ptr, align 8
  store ptr %this, ptr %this.addr, align 8
  %this1 = load ptr, ptr %this.addr, align 8
  %_more_in = getelementptr inbounds %"class.zmq::router_t", ptr %this1, i32 0, i32 9
  %0 = load i8, ptr %_more_in, align 1
  %tobool = trunc i8 %0 to i1
  br i1 %tobool, label %if.then, label %if.end

if.then:                                          ; preds = %entry
  store i1 true, ptr %retval, align 1
  br label %return

if.end:                                           ; preds = %entry
  %_prefetched = getelementptr inbounds %"class.zmq::router_t", ptr %this1, i32 0, i32 2
  %1 = load i8, ptr %_prefetched, align 8
  %tobool2 = trunc i8 %1 to i1
  br i1 %tobool2, label %if.then3, label %if.end4

if.then3:                                         ; preds = %if.end
  store i1 true, ptr %retval, align 1
  br label %return

if.end4:                                          ; preds = %if.end
  store ptr null, ptr %pipe, align 8
  %_fq = getelementptr inbounds %"class.zmq::router_t", ptr %this1, i32 0, i32 1
  %_prefetched_msg = getelementptr inbounds %"class.zmq::router_t", ptr %this1, i32 0, i32 6
  %call = call noundef i32 @_ZN3zmq4fq_t8recvpipeEPNS_5msg_tEPPNS_6pipe_tE(ptr noundef nonnull align 8 dereferenceable(41) %_fq, ptr noundef %_prefetched_msg, ptr noundef %pipe)
  store i32 %call, ptr %rc, align 4
  br label %while.cond

while.cond:                                       ; preds = %while.body, %if.end4
  %2 = load i32, ptr %rc, align 4
  %cmp = icmp eq i32 %2, 0
  br i1 %cmp, label %land.rhs, label %land.end

land.rhs:                                         ; preds = %while.cond
  %_prefetched_msg5 = getelementptr inbounds %"class.zmq::router_t", ptr %this1, i32 0, i32 6
  %call6 = call noundef zeroext i1 @_ZNK3zmq5msg_t13is_routing_idEv(ptr noundef nonnull align 8 dereferenceable(64) %_prefetched_msg5)
  br label %land.end

land.end:                                         ; preds = %land.rhs, %while.cond
  %3 = phi i1 [ false, %while.cond ], [ %call6, %land.rhs ]
  br i1 %3, label %while.body, label %while.end

while.body:                                       ; preds = %land.end
  %_fq7 = getelementptr inbounds %"class.zmq::router_t", ptr %this1, i32 0, i32 1
  %_prefetched_msg8 = getelementptr inbounds %"class.zmq::router_t", ptr %this1, i32 0, i32 6
  %call9 = call noundef i32 @_ZN3zmq4fq_t8recvpipeEPNS_5msg_tEPPNS_6pipe_tE(ptr noundef nonnull align 8 dereferenceable(41) %_fq7, ptr noundef %_prefetched_msg8, ptr noundef %pipe)
  store i32 %call9, ptr %rc, align 4
  br label %while.cond, !llvm.loop !6

while.end:                                        ; preds = %land.end
  %4 = load i32, ptr %rc, align 4
  %cmp10 = icmp ne i32 %4, 0
  br i1 %cmp10, label %if.then11, label %if.end12

if.then11:                                        ; preds = %while.end
  store i1 false, ptr %retval, align 1
  br label %return

if.end12:                                         ; preds = %while.end
  br label %do.body

do.body:                                          ; preds = %if.end12
  %5 = load ptr, ptr %pipe, align 8
  %cmp13 = icmp ne ptr %5, null
  %lnot = xor i1 %cmp13, true
  br i1 %lnot, label %if.then14, label %if.end17

if.then14:                                        ; preds = %do.body
  %6 = load ptr, ptr @stderr, align 8
  %call15 = call i32 (ptr, ptr, ...) @fprintf(ptr noundef %6, ptr noundef @.str, ptr noundef @.str.6, ptr noundef @.str.2, i32 noundef 370)
  %7 = load ptr, ptr @stderr, align 8
  %call16 = call i32 @fflush(ptr noundef %7)
  call void @_ZN3zmq9zmq_abortEPKc(ptr noundef @.str.6)
  br label %if.end17

if.end17:                                         ; preds = %if.then14, %do.body
  br label %do.end

do.end:                                           ; preds = %if.end17
  %8 = load ptr, ptr %pipe, align 8
  %call18 = call noundef nonnull align 8 dereferenceable(17) ptr @_ZNK3zmq6pipe_t14get_routing_idEv(ptr noundef nonnull align 8 dereferenceable(328) %8)
  store ptr %call18, ptr %routing_id, align 8
  %_prefetched_id = getelementptr inbounds %"class.zmq::router_t", ptr %this1, i32 0, i32 5
  %9 = load ptr, ptr %routing_id, align 8
  %call19 = call noundef i64 @_ZNK3zmq6blob_t4sizeEv(ptr noundef nonnull align 8 dereferenceable(17) %9)
  %call20 = call noundef i32 @_ZN3zmq5msg_t9init_sizeEm(ptr noundef nonnull align 8 dereferenceable(64) %_prefetched_id, i64 noundef %call19)
  store i32 %call20, ptr %rc, align 4
  br label %do.body21

do.body21:                                        ; preds = %do.end
  %10 = load i32, ptr %rc, align 4
  %cmp22 = icmp eq i32 %10, 0
  %lnot23 = xor i1 %cmp22, true
  br i1 %lnot23, label %if.then24, label %if.end29

if.then24:                                        ; preds = %do.body21
  %call25 = call ptr @__errno_location() #16
  %11 = load i32, ptr %call25, align 4
  %call26 = call ptr @strerror(i32 noundef %11) #13
  store ptr %call26, ptr %errstr, align 8
  %12 = load ptr, ptr @stderr, align 8
  %13 = load ptr, ptr %errstr, align 8
  %call27 = call i32 (ptr, ptr, ...) @fprintf(ptr noundef %12, ptr noundef @.str.4, ptr noundef %13, ptr noundef @.str.2, i32 noundef 374)
  %14 = load ptr, ptr @stderr, align 8
  %call28 = call i32 @fflush(ptr noundef %14)
  %15 = load ptr, ptr %errstr, align 8
  call void @_ZN3zmq9zmq_abortEPKc(ptr noundef %15)
  br label %if.end29

if.end29:                                         ; preds = %if.then24, %do.body21
  br label %do.end30

do.end30:                                         ; preds = %if.end29
  %_prefetched_id31 = getelementptr inbounds %"class.zmq::router_t", ptr %this1, i32 0, i32 5
  %call32 = call noundef ptr @_ZN3zmq5msg_t4dataEv(ptr noundef nonnull align 8 dereferenceable(64) %_prefetched_id31)
  %16 = load ptr, ptr %routing_id, align 8
  %call33 = call noundef ptr @_ZNK3zmq6blob_t4dataEv(ptr noundef nonnull align 8 dereferenceable(17) %16)
  %17 = load ptr, ptr %routing_id, align 8
  %call34 = call noundef i64 @_ZNK3zmq6blob_t4sizeEv(ptr noundef nonnull align 8 dereferenceable(17) %17)
  call void @llvm.memcpy.p0.p0.i64(ptr align 1 %call32, ptr align 1 %call33, i64 %call34, i1 false)
  %_prefetched_id35 = getelementptr inbounds %"class.zmq::router_t", ptr %this1, i32 0, i32 5
  call void @_ZN3zmq5msg_t9set_flagsEh(ptr noundef nonnull align 8 dereferenceable(64) %_prefetched_id35, i8 noundef zeroext 1)
  %_prefetched_msg36 = getelementptr inbounds %"class.zmq::router_t", ptr %this1, i32 0, i32 6
  %call37 = call noundef ptr @_ZNK3zmq5msg_t8metadataEv(ptr noundef nonnull align 8 dereferenceable(64) %_prefetched_msg36)
  %tobool38 = icmp ne ptr %call37, null
  br i1 %tobool38, label %if.then39, label %if.end43

if.then39:                                        ; preds = %do.end30
  %_prefetched_id40 = getelementptr inbounds %"class.zmq::router_t", ptr %this1, i32 0, i32 5
  %_prefetched_msg41 = getelementptr inbounds %"class.zmq::router_t", ptr %this1, i32 0, i32 6
  %call42 = call noundef ptr @_ZNK3zmq5msg_t8metadataEv(ptr noundef nonnull align 8 dereferenceable(64) %_prefetched_msg41)
  call void @_ZN3zmq5msg_t12set_metadataEPNS_10metadata_tE(ptr noundef nonnull align 8 dereferenceable(64) %_prefetched_id40, ptr noundef %call42)
  br label %if.end43

if.end43:                                         ; preds = %if.then39, %do.end30
  %_prefetched44 = getelementptr inbounds %"class.zmq::router_t", ptr %this1, i32 0, i32 2
  store i8 1, ptr %_prefetched44, align 8
  %_routing_id_sent = getelementptr inbounds %"class.zmq::router_t", ptr %this1, i32 0, i32 3
  store i8 0, ptr %_routing_id_sent, align 1
  %18 = load ptr, ptr %pipe, align 8
  %_current_in = getelementptr inbounds %"class.zmq::router_t", ptr %this1, i32 0, i32 7
  store ptr %18, ptr %_current_in, align 8
  store i1 true, ptr %retval, align 1
  br label %return

return:                                           ; preds = %if.end43, %if.then11, %if.then3, %if.then
  %19 = load i1, ptr %retval, align 1
  ret i1 %19
}