; Function Attrs: mustprogress uwtable
define noundef zeroext i1 @_ZN3zmq8router_t7xhas_inEv(ptr noundef nonnull align 8 dereferenceable(2180) %this) unnamed_addr #0 align 2 {
entry:
  %pipe = alloca ptr, align 8
  %_more_in = getelementptr inbounds i8, ptr %this, i64 2105
  %0 = load i8, ptr %_more_in, align 1
  %1 = and i8 %0, 1
  %tobool.not = icmp eq i8 %1, 0
  br i1 %tobool.not, label %if.end, label %return

if.end:                                           ; preds = %entry
  %_prefetched = getelementptr inbounds i8, ptr %this, i64 1960
  %2 = load i8, ptr %_prefetched, align 8
  %3 = and i8 %2, 1
  %tobool2.not = icmp eq i8 %3, 0
  br i1 %tobool2.not, label %if.end4, label %return

if.end4:                                          ; preds = %if.end
  store ptr null, ptr %pipe, align 8
  %_fq = getelementptr inbounds i8, ptr %this, i64 1912
  %_prefetched_msg = getelementptr inbounds i8, ptr %this, i64 2032
  %call = call noundef i32 @_ZN3zmq4fq_t8recvpipeEPNS_5msg_tEPPNS_6pipe_tE(ptr noundef nonnull align 8 dereferenceable(41) %_fq, ptr noundef nonnull %_prefetched_msg, ptr noundef nonnull %pipe)
  %cond7 = icmp eq i32 %call, 0
  br i1 %cond7, label %land.rhs, label %return

land.rhs:                                         ; preds = %if.end4, %while.body
  %call6 = call noundef zeroext i1 @_ZNK3zmq5msg_t13is_routing_idEv(ptr noundef nonnull align 8 dereferenceable(64) %_prefetched_msg)
  br i1 %call6, label %while.body, label %do.body

while.body:                                       ; preds = %land.rhs
  %call9 = call noundef i32 @_ZN3zmq4fq_t8recvpipeEPNS_5msg_tEPPNS_6pipe_tE(ptr noundef nonnull align 8 dereferenceable(41) %_fq, ptr noundef nonnull %_prefetched_msg, ptr noundef nonnull %pipe)
  %cond = icmp eq i32 %call9, 0
  br i1 %cond, label %land.rhs, label %return, !llvm.loop !8

do.body:                                          ; preds = %land.rhs
  %4 = load ptr, ptr %pipe, align 8
  %cmp13.not = icmp eq ptr %4, null
  br i1 %cmp13.not, label %if.then14, label %do.end

if.then14:                                        ; preds = %do.body
  %5 = load ptr, ptr @stderr, align 8
  %call15 = call i32 (ptr, ptr, ...) @fprintf(ptr noundef %5, ptr noundef nonnull @.str, ptr noundef nonnull @.str.6, ptr noundef nonnull @.str.2, i32 noundef 370) #17
  %6 = load ptr, ptr @stderr, align 8
  %call16 = call i32 @fflush(ptr noundef %6)
  call void @_ZN3zmq9zmq_abortEPKc(ptr noundef nonnull @.str.6)
  %.pre = load ptr, ptr %pipe, align 8
  br label %do.end

do.end:                                           ; preds = %do.body, %if.then14
  %7 = phi ptr [ %4, %do.body ], [ %.pre, %if.then14 ]
  %call18 = call noundef nonnull align 8 dereferenceable(17) ptr @_ZNK3zmq6pipe_t14get_routing_idEv(ptr noundef nonnull align 8 dereferenceable(328) %7)
  %_prefetched_id = getelementptr inbounds i8, ptr %this, i64 1968
  %_size.i = getelementptr inbounds i8, ptr %call18, i64 8
  %8 = load i64, ptr %_size.i, align 8
  %call20 = call noundef i32 @_ZN3zmq5msg_t9init_sizeEm(ptr noundef nonnull align 8 dereferenceable(64) %_prefetched_id, i64 noundef %8)
  %cmp22.not = icmp eq i32 %call20, 0
  br i1 %cmp22.not, label %do.end30, label %if.then24

if.then24:                                        ; preds = %do.end
  %call25 = tail call ptr @__errno_location() #19
  %9 = load i32, ptr %call25, align 4
  %call26 = call ptr @strerror(i32 noundef %9) #15
  %10 = load ptr, ptr @stderr, align 8
  %call27 = call i32 (ptr, ptr, ...) @fprintf(ptr noundef %10, ptr noundef nonnull @.str.4, ptr noundef %call26, ptr noundef nonnull @.str.2, i32 noundef 374) #17
  %11 = load ptr, ptr @stderr, align 8
  %call28 = call i32 @fflush(ptr noundef %11)
  call void @_ZN3zmq9zmq_abortEPKc(ptr noundef %call26)
  br label %do.end30

do.end30:                                         ; preds = %do.end, %if.then24
  %call32 = call noundef ptr @_ZN3zmq5msg_t4dataEv(ptr noundef nonnull align 8 dereferenceable(64) %_prefetched_id)
  %12 = load ptr, ptr %call18, align 8
  %13 = load i64, ptr %_size.i, align 8
  call void @llvm.memcpy.p0.p0.i64(ptr align 1 %call32, ptr align 1 %12, i64 %13, i1 false)
  call void @_ZN3zmq5msg_t9set_flagsEh(ptr noundef nonnull align 8 dereferenceable(64) %_prefetched_id, i8 noundef zeroext 1)
  %call37 = call noundef ptr @_ZNK3zmq5msg_t8metadataEv(ptr noundef nonnull align 8 dereferenceable(64) %_prefetched_msg)
  %tobool38.not = icmp eq ptr %call37, null
  br i1 %tobool38.not, label %if.end43, label %if.then39

if.then39:                                        ; preds = %do.end30
  %call42 = call noundef ptr @_ZNK3zmq5msg_t8metadataEv(ptr noundef nonnull align 8 dereferenceable(64) %_prefetched_msg)
  call void @_ZN3zmq5msg_t12set_metadataEPNS_10metadata_tE(ptr noundef nonnull align 8 dereferenceable(64) %_prefetched_id, ptr noundef %call42)
  br label %if.end43

if.end43:                                         ; preds = %if.then39, %do.end30
  store i8 1, ptr %_prefetched, align 8
  %_routing_id_sent = getelementptr inbounds i8, ptr %this, i64 1961
  store i8 0, ptr %_routing_id_sent, align 1
  %14 = load ptr, ptr %pipe, align 8
  %_current_in = getelementptr inbounds i8, ptr %this, i64 2096
  store ptr %14, ptr %_current_in, align 8
  br label %return

return:                                           ; preds = %while.body, %if.end4, %if.end, %entry, %if.end43
  %retval.0 = phi i1 [ true, %if.end43 ], [ true, %entry ], [ true, %if.end ], [ false, %if.end4 ], [ false, %while.body ]
  ret i1 %retval.0
}